; Function Attrs: mustprogress nofree norecurse nosync nounwind willreturn memory(readwrite, inaccessiblemem: none) uwtable
define void @Extra_BitMatrixInsert2(ptr noundef captures(none) %0, i32 noundef %1, i32 noundef %2) local_unnamed_addr #3 {
  %4 = getelementptr inbounds nuw i8, ptr %0, i64 28
  %5 = load i32, ptr %4, align 4
  %6 = add nsw i32 %5, 1
  store i32 %6, ptr %4, align 4
  %7 = getelementptr inbounds nuw i8, ptr %0, i64 20
  %8 = load i32, ptr %7, align 4
  %9 = load ptr, ptr %0, align 8
  %10 = getelementptr inbounds nuw i8, ptr %0, i64 16
  %11 = load i32, ptr %10, align 8
  %. = tail call i32 @llvm.smin.i32(i32 %1, i32 %2)
  %.25 = tail call i32 @llvm.smax.i32(i32 %1, i32 %2)
  %12 = and i32 %8, %.
  %13 = shl nuw i32 1, %12
  %14 = sext i32 %.25 to i64
  %15 = getelementptr inbounds ptr, ptr %9, i64 %14
  %16 = load ptr, ptr %15, align 8
  %17 = ashr i32 %., %11
  %18 = sext i32 %17 to i64
  %19 = getelementptr inbounds i32, ptr %16, i64 %18
  %20 = load i32, ptr %19, align 4
  %21 = or i32 %20, %13
  store i32 %21, ptr %19, align 4
  ret void
}